; Function Attrs: nounwind uwtable
define internal i32 @sm2_to_SubjectPublicKeyInfo_der_encode(ptr noundef %0, ptr noundef %1, ptr noundef %2, ptr noundef readnone captures(address_is_null) %3, i32 noundef %4, ptr noundef %5, ptr noundef %6) #0 {
  %8 = alloca ptr, align 8
  %9 = alloca i32, align 4
  %.not = icmp eq ptr %3, null
  br i1 %.not, label %11, label %10

10:                                               ; preds = %7
  tail call void @ERR_new() #5
  tail call void @ERR_set_debug(ptr noundef nonnull @.str, i32 noundef 1483, ptr noundef nonnull @__func__.sm2_to_SubjectPublicKeyInfo_der_encode) #5
  tail call void (i32, i32, ptr, ...) @ERR_set_error(i32 noundef 57, i32 noundef 524550, ptr noundef null) #5
  br label %key2any_encode.exit

11:                                               ; preds = %7
  %12 = and i32 %4, 2
  %.not7 = icmp eq i32 %12, 0
  br i1 %.not7, label %32, label %13

13:                                               ; preds = %11
  %14 = icmp eq ptr %2, null
  br i1 %14, label %15, label %16

15:                                               ; preds = %13
  tail call void @ERR_new() #5
  tail call void @ERR_set_debug(ptr noundef nonnull @.str, i32 noundef 1140, ptr noundef nonnull @__func__.key2any_encode) #5
  tail call void (i32, i32, ptr, ...) @ERR_set_error(i32 noundef 57, i32 noundef 786690, ptr noundef null) #5
  br label %key2any_encode.exit

16:                                               ; preds = %13
  %17 = load ptr, ptr %0, align 8, !tbaa !3
  %18 = tail call ptr @ossl_bio_new_from_core_bio(ptr noundef %17, ptr noundef %1) #5
  %.not28.i = icmp eq ptr %18, null
  br i1 %.not28.i, label %30, label %19

19:                                               ; preds = %16
  %20 = icmp eq ptr %5, null
  br i1 %20, label %24, label %21

21:                                               ; preds = %19
  %22 = getelementptr inbounds nuw i8, ptr %0, i64 24
  %23 = tail call i32 @ossl_pw_set_ossl_passphrase_cb(ptr noundef nonnull %22, ptr noundef nonnull %5, ptr noundef %6) #5
  %.not29.i = icmp eq i32 %23, 0
  br i1 %.not29.i, label %30, label %24

24:                                               ; preds = %21, %19
  call void @llvm.lifetime.start.p0(i64 8, ptr nonnull %8) #5
  store ptr null, ptr %8, align 8, !tbaa !21
  call void @llvm.lifetime.start.p0(i64 4, ptr nonnull %9) #5
  store i32 -1, ptr %9, align 4, !tbaa !20
  %25 = call i32 @prepare_ec_params(ptr noundef nonnull %2, i32 poison, i32 poison, ptr noundef nonnull %8, ptr noundef nonnull %9) #5
  %.not17.i = icmp eq i32 %25, 0
  br i1 %.not17.i, label %key_to_spki_der_pub_bio.exit, label %._crit_edge.i

._crit_edge.i:                                    ; preds = %24
  %.pre.i = load ptr, ptr %8, align 8, !tbaa !21
  %.pre19.i = load i32, ptr %9, align 4, !tbaa !20
  %26 = tail call fastcc ptr @key_to_pubkey(ptr noundef nonnull %2, i32 noundef 408, ptr noundef %.pre.i, i32 noundef %.pre19.i, ptr noundef nonnull @ec_spki_pub_to_der, ptr noundef nonnull %0)
  %.not18.i = icmp eq ptr %26, null
  br i1 %.not18.i, label %29, label %27

27:                                               ; preds = %._crit_edge.i
  %28 = tail call i32 @i2d_X509_PUBKEY_bio(ptr noundef nonnull %18, ptr noundef nonnull %26) #5
  br label %29

29:                                               ; preds = %27, %._crit_edge.i
  %.0.i8 = phi i32 [ %28, %27 ], [ 0, %._crit_edge.i ]
  tail call void @X509_PUBKEY_free(ptr noundef %26) #5
  br label %key_to_spki_der_pub_bio.exit

key_to_spki_der_pub_bio.exit:                     ; preds = %24, %29
  %.014.i = phi i32 [ %.0.i8, %29 ], [ 0, %24 ]
  call void @llvm.lifetime.end.p0(i64 4, ptr nonnull %9) #5
  call void @llvm.lifetime.end.p0(i64 8, ptr nonnull %8) #5
  br label %30

30:                                               ; preds = %key_to_spki_der_pub_bio.exit, %21, %16
  %.1.i = phi i32 [ %.014.i, %key_to_spki_der_pub_bio.exit ], [ 0, %21 ], [ 0, %16 ]
  %31 = tail call i32 @BIO_free(ptr noundef %18) #5
  br label %key2any_encode.exit

32:                                               ; preds = %11
  tail call void @ERR_new() #5
  tail call void @ERR_set_debug(ptr noundef nonnull @.str, i32 noundef 1483, ptr noundef nonnull @__func__.sm2_to_SubjectPublicKeyInfo_der_encode) #5
  tail call void (i32, i32, ptr, ...) @ERR_set_error(i32 noundef 57, i32 noundef 524550, ptr noundef null) #5
  br label %key2any_encode.exit

key2any_encode.exit:                              ; preds = %30, %15, %32, %10
  %.0 = phi i32 [ 0, %10 ], [ 0, %32 ], [ 0, %15 ], [ %.1.i, %30 ]
  ret i32 %.0
}